target datalayout = "e-m:e-p270:32:32-p271:32:32-p272:64:64-i64:64-i128:128-f80:128-n8:16:32:64-S128"
target triple = "x86_64-pc-linux-gnu"

%struct.lean_object = type { i32, i32 }
%struct.lean_ctor_object = type { %struct.lean_object, [0 x ptr] }

@l_Lake_quoteArray_x3f___rarg___closed__1 = internal global ptr null, align 8
@l_Lake_PartialBuildKey_toLean_go___closed__6 = internal global ptr null, align 8
@l_Lake_PartialBuildKey_toLean_go___closed__7 = internal global ptr null, align 8
@l_Lake_LeanLibConfig_mkCommand___closed__20 = internal global ptr null, align 8

; Function Attrs: inlinehint nounwind uwtable
define internal ptr @lean_to_ctor(ptr noundef %0) #0 {
  %2 = alloca ptr, align 8
  store ptr %0, ptr %2, align 8, !tbaa !8
  %3 = load ptr, ptr %2, align 8, !tbaa !8
  ret ptr %3
}

; Function Attrs: inlinehint nounwind uwtable
define internal zeroext i1 @lean_is_st(ptr noundef %0) #0 {
  %2 = alloca ptr, align 8
  store ptr %0, ptr %2, align 8, !tbaa !8
  %3 = load ptr, ptr %2, align 8, !tbaa !8
  %4 = getelementptr inbounds nuw %struct.lean_object, ptr %3, i32 0, i32 0
  %5 = load i32, ptr %4, align 4, !tbaa !17
  %6 = icmp sgt i32 %5, 0
  ret i1 %6
}

; Function Attrs: inlinehint nounwind uwtable
define internal ptr @lean_ctor_obj_cptr(ptr noundef %0) #0 {
  %2 = alloca ptr, align 8
  store ptr %0, ptr %2, align 8, !tbaa !8
  %3 = load ptr, ptr %2, align 8, !tbaa !8
  %4 = call ptr @lean_to_ctor(ptr noundef %3)
  %5 = getelementptr inbounds nuw %struct.lean_ctor_object, ptr %4, i32 0, i32 1
  %6 = getelementptr inbounds [0 x ptr], ptr %5, i64 0, i64 0
  ret ptr %6
}

; Function Attrs: alwaysinline nounwind uwtable
define internal void @lean_dec_ref(ptr noundef %0) #1 {
  %2 = alloca ptr, align 8
  store ptr %0, ptr %2, align 8, !tbaa !8
  %3 = load ptr, ptr %2, align 8, !tbaa !8
  %4 = getelementptr inbounds nuw %struct.lean_object, ptr %3, i32 0, i32 0
  %5 = load i32, ptr %4, align 4, !tbaa !17
  %6 = icmp sgt i32 %5, 1
  %7 = zext i1 %6 to i32
  %8 = sext i32 %7 to i64
  %9 = call i64 @llvm.expect.i64(i64 %8, i64 1)
  %10 = icmp ne i64 %9, 0
  br i1 %10, label %11, label %16

11:                                               ; preds = %1
  %12 = load ptr, ptr %2, align 8, !tbaa !8
  %13 = getelementptr inbounds nuw %struct.lean_object, ptr %12, i32 0, i32 0
  %14 = load i32, ptr %13, align 4, !tbaa !17
  %15 = add i32 %14, -1
  store i32 %15, ptr %13, align 4, !tbaa !17
  br label %24

16:                                               ; preds = %1
  %17 = load ptr, ptr %2, align 8, !tbaa !8
  %18 = getelementptr inbounds nuw %struct.lean_object, ptr %17, i32 0, i32 0
  %19 = load i32, ptr %18, align 4, !tbaa !17
  %20 = icmp ne i32 %19, 0
  br i1 %20, label %21, label %23

21:                                               ; preds = %16
  %22 = load ptr, ptr %2, align 8, !tbaa !8
  call void @lean_dec_ref_cold(ptr noundef %22)
  br label %23

23:                                               ; preds = %21, %16
  br label %24

24:                                               ; preds = %23, %11
  ret void
}

; Function Attrs: inlinehint nounwind uwtable
define internal void @lean_inc_ref(ptr noundef %0) #0 {
  %2 = alloca ptr, align 8
  store ptr %0, ptr %2, align 8, !tbaa !8
  %3 = load ptr, ptr %2, align 8, !tbaa !8
  %4 = call zeroext i1 @lean_is_st(ptr noundef %3)
  %5 = zext i1 %4 to i64
  %6 = call i64 @llvm.expect.i64(i64 %5, i64 1)
  %7 = icmp ne i64 %6, 0
  br i1 %7, label %8, label %13

8:                                                ; preds = %1
  %9 = load ptr, ptr %2, align 8, !tbaa !8
  %10 = getelementptr inbounds nuw %struct.lean_object, ptr %9, i32 0, i32 0
  %11 = load i32, ptr %10, align 4, !tbaa !17
  %12 = add i32 %11, 1
  store i32 %12, ptr %10, align 4, !tbaa !17
  br label %21

13:                                               ; preds = %1
  %14 = load ptr, ptr %2, align 8, !tbaa !8
  %15 = getelementptr inbounds nuw %struct.lean_object, ptr %14, i32 0, i32 0
  %16 = load i32, ptr %15, align 4, !tbaa !17
  %17 = icmp ne i32 %16, 0
  br i1 %17, label %18, label %20

18:                                               ; preds = %13
  %19 = load ptr, ptr %2, align 8, !tbaa !8
  call void @lean_inc_ref_cold(ptr noundef %19)
  br label %20

20:                                               ; preds = %18, %13
  br label %21

21:                                               ; preds = %20, %8
  ret void
}

; Function Attrs: alwaysinline nounwind uwtable
define internal zeroext i1 @lean_is_scalar(ptr noundef %0) #1 {
  %2 = alloca ptr, align 8
  store ptr %0, ptr %2, align 8, !tbaa !8
  %3 = load ptr, ptr %2, align 8, !tbaa !8
  %4 = ptrtoint ptr %3 to i64
  %5 = and i64 %4, 1
  %6 = icmp eq i64 %5, 1
  ret i1 %6
}

; Function Attrs: inlinehint nounwind uwtable
define internal ptr @lean_ctor_get(ptr noundef %0, i32 noundef %1) #0 {
  %3 = alloca ptr, align 8
  %4 = alloca i32, align 4
  store ptr %0, ptr %3, align 8, !tbaa !8
  store i32 %1, ptr %4, align 4, !tbaa !13
  %5 = load ptr, ptr %3, align 8, !tbaa !8
  %6 = call ptr @lean_ctor_obj_cptr(ptr noundef %5)
  %7 = load i32, ptr %4, align 4, !tbaa !13
  %8 = zext i32 %7 to i64
  %9 = getelementptr inbounds nuw ptr, ptr %6, i64 %8
  %10 = load ptr, ptr %9, align 8, !tbaa !8
  ret ptr %10
}

; Function Attrs: inlinehint nounwind uwtable
define internal ptr @lean_box(i64 noundef %0) #0 {
  %2 = alloca i64, align 8
  store i64 %0, ptr %2, align 8, !tbaa !4
  %3 = load i64, ptr %2, align 8, !tbaa !4
  %4 = shl i64 %3, 1
  %5 = or i64 %4, 1
  %6 = inttoptr i64 %5 to ptr
  ret ptr %6
}

; Function Attrs: alwaysinline nounwind uwtable
define internal void @lean_dec(ptr noundef %0) #1 {
  %2 = alloca ptr, align 8
  store ptr %0, ptr %2, align 8, !tbaa !8
  %3 = load ptr, ptr %2, align 8, !tbaa !8
  %4 = call zeroext i1 @lean_is_scalar(ptr noundef %3)
  br i1 %4, label %7, label %5

5:                                                ; preds = %1
  %6 = load ptr, ptr %2, align 8, !tbaa !8
  call void @lean_dec_ref(ptr noundef %6)
  br label %7

7:                                                ; preds = %5, %1
  ret void
}

; Function Attrs: alwaysinline nounwind uwtable
define internal void @lean_inc(ptr noundef %0) #1 {
  %2 = alloca ptr, align 8
  store ptr %0, ptr %2, align 8, !tbaa !8
  %3 = load ptr, ptr %2, align 8, !tbaa !8
  %4 = call zeroext i1 @lean_is_scalar(ptr noundef %3)
  br i1 %4, label %7, label %5

5:                                                ; preds = %1
  %6 = load ptr, ptr %2, align 8, !tbaa !8
  call void @lean_inc_ref(ptr noundef %6)
  br label %7

7:                                                ; preds = %5, %1
  ret void
}

; Function Attrs: nounwind uwtable
define ptr @l_Lake_InputFileConfig_mkCommand(ptr noundef %0, ptr noundef %1, i8 noundef zeroext %2) #2 {
  %4 = alloca ptr, align 8
  %5 = alloca ptr, align 8
  %6 = alloca ptr, align 8
  %7 = alloca i8, align 1
  %8 = alloca ptr, align 8
  %9 = alloca ptr, align 8
  %10 = alloca ptr, align 8
  %11 = alloca ptr, align 8
  %12 = alloca ptr, align 8
  %13 = alloca ptr, align 8
  %14 = alloca ptr, align 8
  %15 = alloca ptr, align 8
  %16 = alloca i32, align 4
  %17 = alloca ptr, align 8
  %18 = alloca ptr, align 8
  %19 = alloca ptr, align 8
  %20 = alloca ptr, align 8
  %21 = alloca ptr, align 8
  store ptr %0, ptr %5, align 8, !tbaa !8
  store ptr %1, ptr %6, align 8, !tbaa !8
  store i8 %2, ptr %7, align 1, !tbaa !12
  br label %22

22:                                               ; preds = %3
  call void @llvm.lifetime.start.p0(i64 8, ptr %8) #7
  call void @llvm.lifetime.start.p0(i64 8, ptr %9) #7
  call void @llvm.lifetime.start.p0(i64 8, ptr %10) #7
  %23 = load ptr, ptr @l_Lake_quoteArray_x3f___rarg___closed__1, align 8, !tbaa !8
  store ptr %23, ptr %8, align 8, !tbaa !8
  %24 = load ptr, ptr %5, align 8, !tbaa !8
  call void @lean_inc(ptr noundef %24)
  %25 = load ptr, ptr %5, align 8, !tbaa !8
  %26 = load ptr, ptr %6, align 8, !tbaa !8
  %27 = load ptr, ptr %8, align 8, !tbaa !8
  %28 = call ptr @l_Lake_InputFileConfig_mkDeclFields(ptr noundef %25, ptr noundef %26, ptr noundef %27)
  store ptr %28, ptr %9, align 8, !tbaa !8
  %29 = load ptr, ptr %9, align 8, !tbaa !8
  %30 = call ptr @l_Lake_mkDeclValWhere_x3f(ptr noundef %29)
  store ptr %30, ptr %10, align 8, !tbaa !8
  %31 = load ptr, ptr %9, align 8, !tbaa !8
  call void @lean_dec(ptr noundef %31)
  %32 = load i8, ptr %7, align 1, !tbaa !12
  %33 = zext i8 %32 to i32
  %34 = icmp eq i32 %33, 0
  br i1 %34, label %35, label %50

35:                                               ; preds = %22
  call void @llvm.lifetime.start.p0(i64 8, ptr %11) #7
  call void @llvm.lifetime.start.p0(i64 8, ptr %12) #7
  call void @llvm.lifetime.start.p0(i64 8, ptr %13) #7
  call void @llvm.lifetime.start.p0(i64 8, ptr %14) #7
  call void @llvm.lifetime.start.p0(i64 8, ptr %15) #7
  %36 = call ptr @lean_box(i64 noundef 0)
  store ptr %36, ptr %11, align 8, !tbaa !8
  %37 = load ptr, ptr @l_Lake_PartialBuildKey_toLean_go___closed__6, align 8, !tbaa !8
  store ptr %37, ptr %12, align 8, !tbaa !8
  %38 = load ptr, ptr @l_Lake_PartialBuildKey_toLean_go___closed__7, align 8, !tbaa !8
  store ptr %38, ptr %13, align 8, !tbaa !8
  %39 = load ptr, ptr %5, align 8, !tbaa !8
  %40 = load ptr, ptr %10, align 8, !tbaa !8
  %41 = load ptr, ptr %11, align 8, !tbaa !8
  %42 = load ptr, ptr %12, align 8, !tbaa !8
  %43 = load ptr, ptr %13, align 8, !tbaa !8
  %44 = call ptr @l_Lake_InputFileConfig_mkCommand___lambda__1(ptr noundef %39, ptr noundef %40, ptr noundef %41, ptr noundef %42, ptr noundef %43)
  store ptr %44, ptr %14, align 8, !tbaa !8
  %45 = load ptr, ptr %14, align 8, !tbaa !8
  %46 = call ptr @lean_ctor_get(ptr noundef %45, i32 noundef 0)
  store ptr %46, ptr %15, align 8, !tbaa !8
  %47 = load ptr, ptr %15, align 8, !tbaa !8
  call void @lean_inc(ptr noundef %47)
  %48 = load ptr, ptr %14, align 8, !tbaa !8
  call void @lean_dec(ptr noundef %48)
  %49 = load ptr, ptr %15, align 8, !tbaa !8
  store ptr %49, ptr %4, align 8
  store i32 1, ptr %16, align 4
  call void @llvm.lifetime.end.p0(i64 8, ptr %15) #7
  call void @llvm.lifetime.end.p0(i64 8, ptr %14) #7
  call void @llvm.lifetime.end.p0(i64 8, ptr %13) #7
  call void @llvm.lifetime.end.p0(i64 8, ptr %12) #7
  call void @llvm.lifetime.end.p0(i64 8, ptr %11) #7
  br label %65

50:                                               ; preds = %22
  call void @llvm.lifetime.start.p0(i64 8, ptr %17) #7
  call void @llvm.lifetime.start.p0(i64 8, ptr %18) #7
  call void @llvm.lifetime.start.p0(i64 8, ptr %19) #7
  call void @llvm.lifetime.start.p0(i64 8, ptr %20) #7
  call void @llvm.lifetime.start.p0(i64 8, ptr %21) #7
  %51 = load ptr, ptr @l_Lake_LeanLibConfig_mkCommand___closed__20, align 8, !tbaa !8
  store ptr %51, ptr %17, align 8, !tbaa !8
  %52 = load ptr, ptr @l_Lake_PartialBuildKey_toLean_go___closed__6, align 8, !tbaa !8
  store ptr %52, ptr %18, align 8, !tbaa !8
  %53 = load ptr, ptr @l_Lake_PartialBuildKey_toLean_go___closed__7, align 8, !tbaa !8
  store ptr %53, ptr %19, align 8, !tbaa !8
  %54 = load ptr, ptr %5, align 8, !tbaa !8
  %55 = load ptr, ptr %10, align 8, !tbaa !8
  %56 = load ptr, ptr %17, align 8, !tbaa !8
  %57 = load ptr, ptr %18, align 8, !tbaa !8
  %58 = load ptr, ptr %19, align 8, !tbaa !8
  %59 = call ptr @l_Lake_InputFileConfig_mkCommand___lambda__1(ptr noundef %54, ptr noundef %55, ptr noundef %56, ptr noundef %57, ptr noundef %58)
  store ptr %59, ptr %20, align 8, !tbaa !8
  %60 = load ptr, ptr %20, align 8, !tbaa !8
  %61 = call ptr @lean_ctor_get(ptr noundef %60, i32 noundef 0)
  store ptr %61, ptr %21, align 8, !tbaa !8
  %62 = load ptr, ptr %21, align 8, !tbaa !8
  call void @lean_inc(ptr noundef %62)
  %63 = load ptr, ptr %20, align 8, !tbaa !8
  call void @lean_dec(ptr noundef %63)
  %64 = load ptr, ptr %21, align 8, !tbaa !8
  store ptr %64, ptr %4, align 8
  store i32 1, ptr %16, align 4
  call void @llvm.lifetime.end.p0(i64 8, ptr %21) #7
  call void @llvm.lifetime.end.p0(i64 8, ptr %20) #7
  call void @llvm.lifetime.end.p0(i64 8, ptr %19) #7
  call void @llvm.lifetime.end.p0(i64 8, ptr %18) #7
  call void @llvm.lifetime.end.p0(i64 8, ptr %17) #7
  br label %65

65:                                               ; preds = %50, %35
  call void @llvm.lifetime.end.p0(i64 8, ptr %10) #7
  call void @llvm.lifetime.end.p0(i64 8, ptr %9) #7
  call void @llvm.lifetime.end.p0(i64 8, ptr %8) #7
  %66 = load ptr, ptr %4, align 8
  ret ptr %66
}